; ModuleID = '4/661.c'
source_filename = "4/661.c"
target datalayout = "e-m:e-p270:32:32-p271:32:32-p272:64:64-i64:64-f80:128-n8:16:32:64-S128"
target triple = "x86_64-pc-linux-gnu"

@.str = private unnamed_addr constant [5 x i8] c"%d%d\00", align 1
@.str.1 = private unnamed_addr constant [3 x i8] c"%d\00", align 1
@.str.2 = private unnamed_addr constant [4 x i8] c"%d\0A\00", align 1

; Function Attrs: noinline nounwind uwtable
define dso_local i32 @main() #0 {
  %1 = alloca i32, align 4
  %2 = alloca i32, align 4
  %3 = alloca i32, align 4
  %4 = alloca i32, align 4
  %5 = alloca i32, align 4
  %6 = alloca i32, align 4
  %7 = alloca i32, align 4
  %8 = alloca i32, align 4
  %9 = alloca i32, align 4
  %10 = alloca [200 x [200 x i32]], align 16
  store i32 0, i32* %1, align 4
  %11 = call i32 (i8*, ...) @__isoc99_scanf(i8* getelementptr inbounds ([5 x i8], [5 x i8]* @.str, i64 0, i64 0), i32* %8, i32* %9)
  store i32 1, i32* %3, align 4
  br label %12

12:                                               ; preds = %33, %0
  %13 = load i32, i32* %3, align 4
  %14 = load i32, i32* %8, align 4
  %15 = icmp sle i32 %13, %14
  br i1 %15, label %16, label %36

16:                                               ; preds = %12
  store i32 1, i32* %4, align 4
  br label %17

17:                                               ; preds = %29, %16
  %18 = load i32, i32* %4, align 4
  %19 = load i32, i32* %9, align 4
  %20 = icmp sle i32 %18, %19
  br i1 %20, label %21, label %32

21:                                               ; preds = %17
  %22 = load i32, i32* %3, align 4
  %23 = sext i32 %22 to i64
  %24 = getelementptr inbounds [200 x [200 x i32]], [200 x [200 x i32]]* %10, i64 0, i64 %23
  %25 = load i32, i32* %4, align 4
  %26 = sext i32 %25 to i64
  %27 = getelementptr inbounds [200 x i32], [200 x i32]* %24, i64 0, i64 %26
  %28 = call i32 (i8*, ...) @__isoc99_scanf(i8* getelementptr inbounds ([3 x i8], [3 x i8]* @.str.1, i64 0, i64 0), i32* %27)
  br label %29

29:                                               ; preds = %21
  %30 = load i32, i32* %4, align 4
  %31 = add nsw i32 %30, 1
  store i32 %31, i32* %4, align 4
  br label %17

32:                                               ; preds = %17
  br label %33

33:                                               ; preds = %32
  %34 = load i32, i32* %3, align 4
  %35 = add nsw i32 %34, 1
  store i32 %35, i32* %3, align 4
  br label %12

36:                                               ; preds = %12
  store i32 1, i32* %3, align 4
  store i32 1, i32* %4, align 4
  br label %37

37:                                               ; preds = %95, %36
  %38 = load i32, i32* %3, align 4
  %39 = sext i32 %38 to i64
  %40 = getelementptr inbounds [200 x [200 x i32]], [200 x [200 x i32]]* %10, i64 0, i64 %39
  %41 = load i32, i32* %4, align 4
  %42 = sext i32 %41 to i64
  %43 = getelementptr inbounds [200 x i32], [200 x i32]* %40, i64 0, i64 %42
  %44 = load i32, i32* %43, align 4
  %45 = call i32 (i8*, ...) @printf(i8* getelementptr inbounds ([4 x i8], [4 x i8]* @.str.2, i64 0, i64 0), i32 %44)
  %46 = load i32, i32* %3, align 4
  %47 = add nsw i32 %46, 1
  store i32 %47, i32* %3, align 4
  %48 = load i32, i32* %4, align 4
  %49 = add nsw i32 %48, -1
  store i32 %49, i32* %4, align 4
  %50 = load i32, i32* %4, align 4
  %51 = icmp eq i32 %50, 0
  br i1 %51, label %52, label %70

52:                                               ; preds = %37
  %53 = load i32, i32* %3, align 4
  %54 = load i32, i32* %4, align 4
  %55 = add nsw i32 %53, %54
  %56 = load i32, i32* %9, align 4
  %57 = add nsw i32 %56, 1
  %58 = icmp slt i32 %55, %57
  br i1 %58, label %59, label %61

59:                                               ; preds = %52
  %60 = load i32, i32* %3, align 4
  store i32 %60, i32* %4, align 4
  store i32 1, i32* %3, align 4
  br label %69

61:                                               ; preds = %52
  %62 = load i32, i32* %3, align 4
  %63 = load i32, i32* %4, align 4
  %64 = add nsw i32 %62, %63
  %65 = add nsw i32 %64, 1
  %66 = load i32, i32* %9, align 4
  %67 = sub nsw i32 %65, %66
  store i32 %67, i32* %3, align 4
  %68 = load i32, i32* %9, align 4
  store i32 %68, i32* %4, align 4
  br label %69

69:                                               ; preds = %61, %59
  br label %70

70:                                               ; preds = %69, %37
  %71 = load i32, i32* %3, align 4
  %72 = load i32, i32* %8, align 4
  %73 = icmp sgt i32 %71, %72
  br i1 %73, label %74, label %94

74:                                               ; preds = %70
  %75 = load i32, i32* %3, align 4
  %76 = load i32, i32* %4, align 4
  %77 = add nsw i32 %75, %76
  %78 = load i32, i32* %9, align 4
  %79 = add nsw i32 %78, 1
  %80 = icmp slt i32 %77, %79
  br i1 %80, label %81, label %85

81:                                               ; preds = %74
  %82 = load i32, i32* %3, align 4
  %83 = load i32, i32* %4, align 4
  %84 = add nsw i32 %82, %83
  store i32 %84, i32* %4, align 4
  store i32 1, i32* %3, align 4
  br label %93

85:                                               ; preds = %74
  %86 = load i32, i32* %8, align 4
  %87 = add nsw i32 %86, 2
  %88 = load i32, i32* %4, align 4
  %89 = add nsw i32 %87, %88
  %90 = load i32, i32* %9, align 4
  %91 = sub nsw i32 %89, %90
  store i32 %91, i32* %3, align 4
  %92 = load i32, i32* %9, align 4
  store i32 %92, i32* %4, align 4
  br label %93

93:                                               ; preds = %85, %81
  br label %94

94:                                               ; preds = %93, %70
  br label %95

95:                                               ; preds = %94
  %96 = load i32, i32* %3, align 4
  %97 = load i32, i32* %8, align 4
  %98 = icmp sle i32 %96, %97
  br i1 %98, label %37, label %99

99:                                               ; preds = %95
  ret i32 0
}

declare dso_local i32 @__isoc99_scanf(i8*, ...) #1

declare dso_local i32 @printf(i8*, ...) #1


!llvm.module.flags = !{!0}
!llvm.ident = !{!1}

!0 = !{i32 1, !"wchar_size", i32 4}
!1 = !{!"clang version 10.0.0-4ubuntu1 "}
