; ModuleID = 'source-C-CXX/3/661.c'
source_filename = "source-C-CXX/3/661.c"
target datalayout = "e-m:e-p270:32:32-p271:32:32-p272:64:64-i64:64-f80:128-n8:16:32:64-S128"
target triple = "x86_64-pc-linux-gnu"

@.str = private unnamed_addr constant [5 x i8] c"%d%d\00", align 1
@.str.1 = private unnamed_addr constant [3 x i8] c"%d\00", align 1
@.str.2 = private unnamed_addr constant [4 x i8] c"%d\0A\00", align 1

; Function Attrs: nofree nounwind sspstrong uwtable
define dso_local i32 @main() local_unnamed_addr #0 {
  %1 = alloca i32, align 4
  %2 = alloca i32, align 4
  %3 = alloca [200 x [200 x i32]], align 16
  %4 = bitcast i32* %1 to i8*
  call void @llvm.lifetime.start.p0i8(i64 4, i8* nonnull %4) #3
  %5 = bitcast i32* %2 to i8*
  call void @llvm.lifetime.start.p0i8(i64 4, i8* nonnull %5) #3
  %6 = bitcast [200 x [200 x i32]]* %3 to i8*
  call void @llvm.lifetime.start.p0i8(i64 160000, i8* nonnull %6) #3
  %7 = call i32 (i8*, ...) @__isoc99_scanf(i8* getelementptr inbounds ([5 x i8], [5 x i8]* @.str, i64 0, i64 0), i32* nonnull %1, i32* nonnull %2)
  %8 = load i32, i32* %1, align 4, !tbaa !5
  %9 = icmp slt i32 %8, 1
  %10 = load i32, i32* %2, align 4
  %11 = icmp slt i32 %10, 1
  %12 = select i1 %9, i1 true, i1 %11
  br i1 %12, label %34, label %13

13:                                               ; preds = %0, %28
  %14 = phi i32 [ %29, %28 ], [ %8, %0 ]
  %15 = phi i32 [ %30, %28 ], [ %10, %0 ]
  %16 = phi i64 [ %31, %28 ], [ 1, %0 ]
  %17 = icmp slt i32 %15, 1
  br i1 %17, label %28, label %18

18:                                               ; preds = %13, %18
  %19 = phi i64 [ %22, %18 ], [ 1, %13 ]
  %20 = getelementptr inbounds [200 x [200 x i32]], [200 x [200 x i32]]* %3, i64 0, i64 %16, i64 %19
  %21 = call i32 (i8*, ...) @__isoc99_scanf(i8* getelementptr inbounds ([3 x i8], [3 x i8]* @.str.1, i64 0, i64 0), i32* nonnull %20)
  %22 = add nuw nsw i64 %19, 1
  %23 = load i32, i32* %2, align 4, !tbaa !5
  %24 = sext i32 %23 to i64
  %25 = icmp slt i64 %19, %24
  br i1 %25, label %18, label %26, !llvm.loop !9

26:                                               ; preds = %18
  %27 = load i32, i32* %1, align 4, !tbaa !5
  br label %28

28:                                               ; preds = %26, %13
  %29 = phi i32 [ %27, %26 ], [ %14, %13 ]
  %30 = phi i32 [ %23, %26 ], [ %15, %13 ]
  %31 = add nuw nsw i64 %16, 1
  %32 = sext i32 %29 to i64
  %33 = icmp slt i64 %16, %32
  br i1 %33, label %13, label %34, !llvm.loop !11

34:                                               ; preds = %28, %0
  br label %35

35:                                               ; preds = %34, %65
  %36 = phi i32 [ %66, %65 ], [ 1, %34 ]
  %37 = phi i32 [ %67, %65 ], [ 1, %34 ]
  %38 = sext i32 %37 to i64
  %39 = sext i32 %36 to i64
  %40 = getelementptr inbounds [200 x [200 x i32]], [200 x [200 x i32]]* %3, i64 0, i64 %38, i64 %39
  %41 = load i32, i32* %40, align 4, !tbaa !5
  %42 = call i32 (i8*, ...) @printf(i8* nonnull dereferenceable(1) getelementptr inbounds ([4 x i8], [4 x i8]* @.str.2, i64 0, i64 0), i32 %41)
  %43 = add nsw i32 %37, 1
  %44 = add nsw i32 %36, -1
  %45 = icmp eq i32 %44, 0
  br i1 %45, label %46, label %52

46:                                               ; preds = %35
  %47 = load i32, i32* %2, align 4, !tbaa !5
  %48 = icmp slt i32 %37, %47
  br i1 %48, label %52, label %49

49:                                               ; preds = %46
  %50 = add nsw i32 %37, 2
  %51 = sub i32 %50, %47
  br label %52

52:                                               ; preds = %46, %49, %35
  %53 = phi i32 [ %47, %49 ], [ %44, %35 ], [ %43, %46 ]
  %54 = phi i32 [ %51, %49 ], [ %43, %35 ], [ 1, %46 ]
  %55 = load i32, i32* %1, align 4, !tbaa !5
  %56 = icmp sgt i32 %54, %55
  br i1 %56, label %57, label %65

57:                                               ; preds = %52
  %58 = add nsw i32 %54, %53
  %59 = load i32, i32* %2, align 4, !tbaa !5
  %60 = icmp sgt i32 %58, %59
  br i1 %60, label %61, label %65

61:                                               ; preds = %57
  %62 = add i32 %53, 2
  %63 = add i32 %62, %55
  %64 = sub i32 %63, %59
  br label %65

65:                                               ; preds = %57, %52, %61
  %66 = phi i32 [ %59, %61 ], [ %53, %52 ], [ %58, %57 ]
  %67 = phi i32 [ %64, %61 ], [ %54, %52 ], [ 1, %57 ]
  %68 = icmp sgt i32 %67, %55
  br i1 %68, label %69, label %35, !llvm.loop !13

69:                                               ; preds = %65
  call void @llvm.lifetime.end.p0i8(i64 160000, i8* nonnull %6) #3
  call void @llvm.lifetime.end.p0i8(i64 4, i8* nonnull %5) #3
  call void @llvm.lifetime.end.p0i8(i64 4, i8* nonnull %4) #3
  ret i32 0
}

; Function Attrs: argmemonly mustprogress nofree nosync nounwind willreturn
declare void @llvm.lifetime.start.p0i8(i64 immarg, i8* nocapture) #1

; Function Attrs: nofree nounwind
declare noundef i32 @__isoc99_scanf(i8* nocapture noundef readonly, ...) local_unnamed_addr #2

; Function Attrs: nofree nounwind
declare noundef i32 @printf(i8* nocapture noundef readonly, ...) local_unnamed_addr #2

; Function Attrs: argmemonly mustprogress nofree nosync nounwind willreturn
declare void @llvm.lifetime.end.p0i8(i64 immarg, i8* nocapture) #1


!llvm.module.flags = !{!0, !1, !2, !3}
!llvm.ident = !{!4}

!0 = !{i32 1, !"wchar_size", i32 4}
!1 = !{i32 7, !"PIC Level", i32 2}
!2 = !{i32 7, !"PIE Level", i32 2}
!3 = !{i32 7, !"uwtable", i32 1}
!4 = !{!"clang version 13.0.0"}
!5 = !{!6, !6, i64 0}
!6 = !{!"int", !7, i64 0}
!7 = !{!"omnipotent char", !8, i64 0}
!8 = !{!"Simple C/C++ TBAA"}
!9 = distinct !{!9, !10}
!10 = !{!"llvm.loop.mustprogress"}
!11 = distinct !{!11, !10, !12}
!12 = !{!"llvm.loop.unswitch.partial.disable"}
!13 = distinct !{!13, !10}
